target datalayout = "e-m:e-p270:32:32-p271:32:32-p272:64:64-i64:64-i128:128-f80:128-n8:16:32:64-S128"
target triple = "x86_64-unknown-linux-gnu"

%"class.Assimp::MDLImporter" = type <{ %"class.Assimp::BaseImporter", i32, [4 x i8], %"class.std::__cxx11::basic_string", ptr, i32, [4 x i8], ptr, ptr, i32, %"struct.Assimp::MDL::HalfLife::HL1ImportSettings", [2 x i8] }>
%"class.Assimp::BaseImporter" = type { ptr, double, double, %"class.std::__cxx11::basic_string", %"class.std::__exception_ptr::exception_ptr", ptr }
%"class.std::__exception_ptr::exception_ptr" = type { ptr }
%"class.std::__cxx11::basic_string" = type { %"struct.std::__cxx11::basic_string<char>::_Alloc_hider", i64, %union.anon }
%"struct.std::__cxx11::basic_string<char>::_Alloc_hider" = type { ptr }
%union.anon = type { i64, [8 x i8] }
%"struct.Assimp::MDL::HalfLife::HL1ImportSettings" = type { i8, i8, i8, i8, i8, i8, i8, i8, i8, i8 }
%"struct.Assimp::MDL::Header" = type { i32, i32, [3 x float], [3 x float], float, [3 x float], i32, i32, i32, i32, i32, i32, i32, i32, float }

@_ZTI17DeadlyImportError = linkonce_odr constant { ptr, ptr, ptr } { ptr getelementptr inbounds (ptr, ptr @_ZTVN10__cxxabiv120__si_class_type_infoE, i64 2), ptr @_ZTS17DeadlyImportError, ptr @_ZTI15DeadlyErrorBase }, comdat, align 8
@.str.45 = private unnamed_addr constant [46 x i8] c"[Quake 1 MDL] There are no frames in the file\00", align 1
@.str.46 = private unnamed_addr constant [48 x i8] c"[Quake 1 MDL] There are no vertices in the file\00", align 1
@.str.47 = private unnamed_addr constant [49 x i8] c"[Quake 1 MDL] There are no triangles in the file\00", align 1
@.str.48 = private unnamed_addr constant [58 x i8] c"Quake 1 MDL model has more than AI_MDL_MAX_VERTS vertices\00", align 1
@.str.49 = private unnamed_addr constant [63 x i8] c"Quake 1 MDL model has more than AI_MDL_MAX_TRIANGLES triangles\00", align 1
@.str.50 = private unnamed_addr constant [57 x i8] c"Quake 1 MDL model has more than AI_MDL_MAX_FRAMES frames\00", align 1
@.str.51 = private unnamed_addr constant [98 x i8] c"Quake 1 MDL model has an unknown version: AI_MDL_VERSION (=6) is the expected file format version\00", align 1
@.str.52 = private unnamed_addr constant [27 x i8] c"Skin width or height are 0\00", align 1

; Function Attrs: mustprogress uwtable
define hidden void @_ZN6Assimp11MDLImporter21ValidateHeader_Quake1EPKNS_3MDL6HeaderE(ptr noundef nonnull align 8 dereferenceable(158) %this, ptr noundef %pcHeader) #2 align 2 personality ptr @__gxx_personality_v0 {
entry:
  %this.addr = alloca ptr, align 8
  %pcHeader.addr = alloca ptr, align 8
  %exn.slot = alloca ptr, align 8
  %ehselector.slot = alloca i32, align 4
  store ptr %this, ptr %this.addr, align 8
  store ptr %pcHeader, ptr %pcHeader.addr, align 8
  %this1 = load ptr, ptr %this.addr, align 8
  %0 = load ptr, ptr %pcHeader.addr, align 8
  %num_frames = getelementptr inbounds %"struct.Assimp::MDL::Header", ptr %0, i32 0, i32 11
  %1 = load i32, ptr %num_frames, align 1
  %tobool = icmp ne i32 %1, 0
  br i1 %tobool, label %if.end, label %if.then

if.then:                                          ; preds = %entry
  %exception = call ptr @__cxa_allocate_exception(i64 16) #16
  invoke void @_ZN17DeadlyImportErrorC2EPKc(ptr noundef nonnull align 8 dereferenceable(16) %exception, ptr noundef @.str.45)
          to label %invoke.cont unwind label %lpad

invoke.cont:                                      ; preds = %if.then
  call void @__cxa_throw(ptr %exception, ptr @_ZTI17DeadlyImportError, ptr @_ZN17DeadlyImportErrorD2Ev) #17
  unreachable

lpad:                                             ; preds = %if.then
  %2 = landingpad { ptr, i32 }
          cleanup
  %3 = extractvalue { ptr, i32 } %2, 0
  store ptr %3, ptr %exn.slot, align 8
  %4 = extractvalue { ptr, i32 } %2, 1
  store i32 %4, ptr %ehselector.slot, align 4
  call void @__cxa_free_exception(ptr %exception) #16
  br label %eh.resume

if.end:                                           ; preds = %entry
  %5 = load ptr, ptr %pcHeader.addr, align 8
  %num_verts = getelementptr inbounds %"struct.Assimp::MDL::Header", ptr %5, i32 0, i32 9
  %6 = load i32, ptr %num_verts, align 1
  %tobool2 = icmp ne i32 %6, 0
  br i1 %tobool2, label %if.end7, label %if.then3

if.then3:                                         ; preds = %if.end
  %exception4 = call ptr @__cxa_allocate_exception(i64 16) #16
  invoke void @_ZN17DeadlyImportErrorC2EPKc(ptr noundef nonnull align 8 dereferenceable(16) %exception4, ptr noundef @.str.46)
          to label %invoke.cont6 unwind label %lpad5

invoke.cont6:                                     ; preds = %if.then3
  call void @__cxa_throw(ptr %exception4, ptr @_ZTI17DeadlyImportError, ptr @_ZN17DeadlyImportErrorD2Ev) #17
  unreachable

lpad5:                                            ; preds = %if.then3
  %7 = landingpad { ptr, i32 }
          cleanup
  %8 = extractvalue { ptr, i32 } %7, 0
  store ptr %8, ptr %exn.slot, align 8
  %9 = extractvalue { ptr, i32 } %7, 1
  store i32 %9, ptr %ehselector.slot, align 4
  call void @__cxa_free_exception(ptr %exception4) #16
  br label %eh.resume

if.end7:                                          ; preds = %if.end
  %10 = load ptr, ptr %pcHeader.addr, align 8
  %num_tris = getelementptr inbounds %"struct.Assimp::MDL::Header", ptr %10, i32 0, i32 10
  %11 = load i32, ptr %num_tris, align 1
  %tobool8 = icmp ne i32 %11, 0
  br i1 %tobool8, label %if.end13, label %if.then9

if.then9:                                         ; preds = %if.end7
  %exception10 = call ptr @__cxa_allocate_exception(i64 16) #16
  invoke void @_ZN17DeadlyImportErrorC2EPKc(ptr noundef nonnull align 8 dereferenceable(16) %exception10, ptr noundef @.str.47)
          to label %invoke.cont12 unwind label %lpad11

invoke.cont12:                                    ; preds = %if.then9
  call void @__cxa_throw(ptr %exception10, ptr @_ZTI17DeadlyImportError, ptr @_ZN17DeadlyImportErrorD2Ev) #17
  unreachable

lpad11:                                           ; preds = %if.then9
  %12 = landingpad { ptr, i32 }
          cleanup
  %13 = extractvalue { ptr, i32 } %12, 0
  store ptr %13, ptr %exn.slot, align 8
  %14 = extractvalue { ptr, i32 } %12, 1
  store i32 %14, ptr %ehselector.slot, align 4
  call void @__cxa_free_exception(ptr %exception10) #16
  br label %eh.resume

if.end13:                                         ; preds = %if.end7
  %iGSFileVersion = getelementptr inbounds %"class.Assimp::MDLImporter", ptr %this1, i32 0, i32 5
  %15 = load i32, ptr %iGSFileVersion, align 8
  %tobool14 = icmp ne i32 %15, 0
  br i1 %tobool14, label %if.end42, label %if.then15

if.then15:                                        ; preds = %if.end13
  %16 = load ptr, ptr %pcHeader.addr, align 8
  %num_verts16 = getelementptr inbounds %"struct.Assimp::MDL::Header", ptr %16, i32 0, i32 9
  %17 = load i32, ptr %num_verts16, align 1
  %cmp = icmp sgt i32 %17, 1024
  br i1 %cmp, label %if.then17, label %if.end18

if.then17:                                        ; preds = %if.then15
  %call = call noundef ptr @_ZN6Assimp13DefaultLogger3getEv()
  call void @_ZN6Assimp6Logger4warnEPKc(ptr noundef nonnull align 8 dereferenceable(12) %call, ptr noundef @.str.48)
  br label %if.end18

if.end18:                                         ; preds = %if.then17, %if.then15
  %18 = load ptr, ptr %pcHeader.addr, align 8
  %num_tris19 = getelementptr inbounds %"struct.Assimp::MDL::Header", ptr %18, i32 0, i32 10
  %19 = load i32, ptr %num_tris19, align 1
  %cmp20 = icmp sgt i32 %19, 2048
  br i1 %cmp20, label %if.then21, label %if.end23

if.then21:                                        ; preds = %if.end18
  %call22 = call noundef ptr @_ZN6Assimp13DefaultLogger3getEv()
  call void @_ZN6Assimp6Logger4warnEPKc(ptr noundef nonnull align 8 dereferenceable(12) %call22, ptr noundef @.str.49)
  br label %if.end23

if.end23:                                         ; preds = %if.then21, %if.end18
  %20 = load ptr, ptr %pcHeader.addr, align 8
  %num_frames24 = getelementptr inbounds %"struct.Assimp::MDL::Header", ptr %20, i32 0, i32 11
  %21 = load i32, ptr %num_frames24, align 1
  %cmp25 = icmp sgt i32 %21, 256
  br i1 %cmp25, label %if.then26, label %if.end28

if.then26:                                        ; preds = %if.end23
  %call27 = call noundef ptr @_ZN6Assimp13DefaultLogger3getEv()
  call void @_ZN6Assimp6Logger4warnEPKc(ptr noundef nonnull align 8 dereferenceable(12) %call27, ptr noundef @.str.50)
  br label %if.end28

if.end28:                                         ; preds = %if.then26, %if.end23
  %iGSFileVersion29 = getelementptr inbounds %"class.Assimp::MDLImporter", ptr %this1, i32 0, i32 5
  %22 = load i32, ptr %iGSFileVersion29, align 8
  %tobool30 = icmp ne i32 %22, 0
  br i1 %tobool30, label %if.end34, label %land.lhs.true

land.lhs.true:                                    ; preds = %if.end28
  %23 = load ptr, ptr %pcHeader.addr, align 8
  %version = getelementptr inbounds %"struct.Assimp::MDL::Header", ptr %23, i32 0, i32 1
  %24 = load i32, ptr %version, align 1
  %cmp31 = icmp ne i32 %24, 6
  br i1 %cmp31, label %if.then32, label %if.end34

if.then32:                                        ; preds = %land.lhs.true
  %call33 = call noundef ptr @_ZN6Assimp13DefaultLogger3getEv()
  call void @_ZN6Assimp6Logger4warnEPKc(ptr noundef nonnull align 8 dereferenceable(12) %call33, ptr noundef @.str.51)
  br label %if.end34

if.end34:                                         ; preds = %if.then32, %land.lhs.true, %if.end28
  %25 = load ptr, ptr %pcHeader.addr, align 8
  %num_skins = getelementptr inbounds %"struct.Assimp::MDL::Header", ptr %25, i32 0, i32 6
  %26 = load i32, ptr %num_skins, align 1
  %tobool35 = icmp ne i32 %26, 0
  br i1 %tobool35, label %land.lhs.true36, label %if.end41

land.lhs.true36:                                  ; preds = %if.end34
  %27 = load ptr, ptr %pcHeader.addr, align 8
  %skinwidth = getelementptr inbounds %"struct.Assimp::MDL::Header", ptr %27, i32 0, i32 7
  %28 = load i32, ptr %skinwidth, align 1
  %tobool37 = icmp ne i32 %28, 0
  br i1 %tobool37, label %lor.lhs.false, label %if.then39

lor.lhs.false:                                    ; preds = %land.lhs.true36
  %29 = load ptr, ptr %pcHeader.addr, align 8
  %skinheight = getelementptr inbounds %"struct.Assimp::MDL::Header", ptr %29, i32 0, i32 8
  %30 = load i32, ptr %skinheight, align 1
  %tobool38 = icmp ne i32 %30, 0
  br i1 %tobool38, label %if.end41, label %if.then39

if.then39:                                        ; preds = %lor.lhs.false, %land.lhs.true36
  %call40 = call noundef ptr @_ZN6Assimp13DefaultLogger3getEv()
  call void @_ZN6Assimp6Logger4warnEPKc(ptr noundef nonnull align 8 dereferenceable(12) %call40, ptr noundef @.str.52)
  br label %if.end41

if.end41:                                         ; preds = %if.then39, %lor.lhs.false, %if.end34
  br label %if.end42

if.end42:                                         ; preds = %if.end41, %if.end13
  ret void

eh.resume:                                        ; preds = %lpad11, %lpad5, %lpad
  %exn = load ptr, ptr %exn.slot, align 8
  %sel = load i32, ptr %ehselector.slot, align 4
  %lpad.val = insertvalue { ptr, i32 } poison, ptr %exn, 0
  %lpad.val43 = insertvalue { ptr, i32 } %lpad.val, i32 %sel, 1
  resume { ptr, i32 } %lpad.val43
}