; Function Attrs: mustprogress uwtable
define hidden void @_ZN6Assimp11MDLImporter21ValidateHeader_Quake1EPKNS_3MDL6HeaderE(ptr nocapture noundef nonnull readonly align 8 dereferenceable(158) %this, ptr nocapture noundef readonly %pcHeader) local_unnamed_addr #2 align 2 personality ptr @__gxx_personality_v0 {
entry:
  %num_frames = getelementptr inbounds i8, ptr %pcHeader, i64 68
  %0 = load i32, ptr %num_frames, align 1
  %tobool.not = icmp eq i32 %0, 0
  br i1 %tobool.not, label %if.then, label %if.end

if.then:                                          ; preds = %entry
  %exception = tail call ptr @__cxa_allocate_exception(i64 16) #24
  invoke void @_ZN17DeadlyImportErrorC2EPKc(ptr noundef nonnull align 8 dereferenceable(16) %exception, ptr noundef nonnull @.str.45)
          to label %invoke.cont unwind label %lpad

invoke.cont:                                      ; preds = %if.then
  tail call void @__cxa_throw(ptr nonnull %exception, ptr nonnull @_ZTI17DeadlyImportError, ptr nonnull @_ZN17DeadlyImportErrorD2Ev) #25
  unreachable

lpad:                                             ; preds = %if.then
  %1 = landingpad { ptr, i32 }
          cleanup
  br label %eh.resume

if.end:                                           ; preds = %entry
  %num_verts = getelementptr inbounds i8, ptr %pcHeader, i64 60
  %2 = load i32, ptr %num_verts, align 1
  %tobool2.not = icmp eq i32 %2, 0
  br i1 %tobool2.not, label %if.then3, label %if.end7

if.then3:                                         ; preds = %if.end
  %exception4 = tail call ptr @__cxa_allocate_exception(i64 16) #24
  invoke void @_ZN17DeadlyImportErrorC2EPKc(ptr noundef nonnull align 8 dereferenceable(16) %exception4, ptr noundef nonnull @.str.46)
          to label %invoke.cont6 unwind label %lpad5

invoke.cont6:                                     ; preds = %if.then3
  tail call void @__cxa_throw(ptr nonnull %exception4, ptr nonnull @_ZTI17DeadlyImportError, ptr nonnull @_ZN17DeadlyImportErrorD2Ev) #25
  unreachable

lpad5:                                            ; preds = %if.then3
  %3 = landingpad { ptr, i32 }
          cleanup
  br label %eh.resume

if.end7:                                          ; preds = %if.end
  %num_tris = getelementptr inbounds i8, ptr %pcHeader, i64 64
  %4 = load i32, ptr %num_tris, align 1
  %tobool8.not = icmp eq i32 %4, 0
  br i1 %tobool8.not, label %if.then9, label %if.end13

if.then9:                                         ; preds = %if.end7
  %exception10 = tail call ptr @__cxa_allocate_exception(i64 16) #24
  invoke void @_ZN17DeadlyImportErrorC2EPKc(ptr noundef nonnull align 8 dereferenceable(16) %exception10, ptr noundef nonnull @.str.47)
          to label %invoke.cont12 unwind label %lpad11

invoke.cont12:                                    ; preds = %if.then9
  tail call void @__cxa_throw(ptr nonnull %exception10, ptr nonnull @_ZTI17DeadlyImportError, ptr nonnull @_ZN17DeadlyImportErrorD2Ev) #25
  unreachable

lpad11:                                           ; preds = %if.then9
  %5 = landingpad { ptr, i32 }
          cleanup
  br label %eh.resume

if.end13:                                         ; preds = %if.end7
  %iGSFileVersion = getelementptr inbounds i8, ptr %this, i64 120
  %6 = load i32, ptr %iGSFileVersion, align 8
  %tobool14.not = icmp eq i32 %6, 0
  br i1 %tobool14.not, label %if.then15, label %if.end42

if.then15:                                        ; preds = %if.end13
  %cmp = icmp sgt i32 %2, 1024
  br i1 %cmp, label %if.then17, label %if.end18

if.then17:                                        ; preds = %if.then15
  %call = tail call noundef ptr @_ZN6Assimp13DefaultLogger3getEv()
  tail call void @_ZN6Assimp6Logger4warnEPKc(ptr noundef nonnull align 8 dereferenceable(12) %call, ptr noundef nonnull @.str.48)
  %.pre = load i32, ptr %num_tris, align 1
  br label %if.end18

if.end18:                                         ; preds = %if.then17, %if.then15
  %7 = phi i32 [ %.pre, %if.then17 ], [ %4, %if.then15 ]
  %cmp20 = icmp sgt i32 %7, 2048
  br i1 %cmp20, label %if.then21, label %if.end23

if.then21:                                        ; preds = %if.end18
  %call22 = tail call noundef ptr @_ZN6Assimp13DefaultLogger3getEv()
  tail call void @_ZN6Assimp6Logger4warnEPKc(ptr noundef nonnull align 8 dereferenceable(12) %call22, ptr noundef nonnull @.str.49)
  br label %if.end23

if.end23:                                         ; preds = %if.then21, %if.end18
  %8 = load i32, ptr %num_frames, align 1
  %cmp25 = icmp sgt i32 %8, 256
  br i1 %cmp25, label %if.then26, label %if.end28

if.then26:                                        ; preds = %if.end23
  %call27 = tail call noundef ptr @_ZN6Assimp13DefaultLogger3getEv()
  tail call void @_ZN6Assimp6Logger4warnEPKc(ptr noundef nonnull align 8 dereferenceable(12) %call27, ptr noundef nonnull @.str.50)
  br label %if.end28

if.end28:                                         ; preds = %if.then26, %if.end23
  %9 = load i32, ptr %iGSFileVersion, align 8
  %tobool30.not = icmp eq i32 %9, 0
  br i1 %tobool30.not, label %land.lhs.true, label %if.end34

land.lhs.true:                                    ; preds = %if.end28
  %version = getelementptr inbounds i8, ptr %pcHeader, i64 4
  %10 = load i32, ptr %version, align 1
  %cmp31.not = icmp eq i32 %10, 6
  br i1 %cmp31.not, label %if.end34, label %if.then32

if.then32:                                        ; preds = %land.lhs.true
  %call33 = tail call noundef ptr @_ZN6Assimp13DefaultLogger3getEv()
  tail call void @_ZN6Assimp6Logger4warnEPKc(ptr noundef nonnull align 8 dereferenceable(12) %call33, ptr noundef nonnull @.str.51)
  br label %if.end34

if.end34:                                         ; preds = %if.then32, %land.lhs.true, %if.end28
  %num_skins = getelementptr inbounds i8, ptr %pcHeader, i64 48
  %11 = load i32, ptr %num_skins, align 1
  %tobool35.not = icmp eq i32 %11, 0
  br i1 %tobool35.not, label %if.end42, label %land.lhs.true36

land.lhs.true36:                                  ; preds = %if.end34
  %skinwidth = getelementptr inbounds i8, ptr %pcHeader, i64 52
  %12 = load i32, ptr %skinwidth, align 1
  %tobool37.not = icmp eq i32 %12, 0
  br i1 %tobool37.not, label %if.then39, label %lor.lhs.false

lor.lhs.false:                                    ; preds = %land.lhs.true36
  %skinheight = getelementptr inbounds i8, ptr %pcHeader, i64 56
  %13 = load i32, ptr %skinheight, align 1
  %tobool38.not = icmp eq i32 %13, 0
  br i1 %tobool38.not, label %if.then39, label %if.end42

if.then39:                                        ; preds = %lor.lhs.false, %land.lhs.true36
  %call40 = tail call noundef ptr @_ZN6Assimp13DefaultLogger3getEv()
  tail call void @_ZN6Assimp6Logger4warnEPKc(ptr noundef nonnull align 8 dereferenceable(12) %call40, ptr noundef nonnull @.str.52)
  br label %if.end42

if.end42:                                         ; preds = %if.end34, %lor.lhs.false, %if.then39, %if.end13
  ret void

eh.resume:                                        ; preds = %lpad11, %lpad5, %lpad
  %exception10.sink = phi ptr [ %exception10, %lpad11 ], [ %exception4, %lpad5 ], [ %exception, %lpad ]
  %.pn = phi { ptr, i32 } [ %5, %lpad11 ], [ %3, %lpad5 ], [ %1, %lpad ]
  tail call void @__cxa_free_exception(ptr %exception10.sink) #24
  resume { ptr, i32 } %.pn
}